target datalayout = "e-m:e-p270:32:32-p271:32:32-p272:64:64-i64:64-i128:128-f80:128-n8:16:32:64-S128"
target triple = "x86_64-pc-linux-gnu"

%struct._lv_table_t = type { %struct._lv_obj_t, i32, i32, ptr, ptr, ptr, i32, i32 }
%struct._lv_obj_t = type { ptr, ptr, ptr, ptr, ptr, %struct.lv_area_t, i32, i16, i16 }
%struct.lv_area_t = type { i32, i32, i32, i32 }

; Function Attrs: nounwind uwtable
define i32 @lv_table_get_column_width(ptr noundef %0, i32 noundef %1) #0 {
  %3 = alloca i32, align 4
  %4 = alloca ptr, align 8
  %5 = alloca i32, align 4
  %6 = alloca ptr, align 8
  %7 = alloca i32, align 4
  store ptr %0, ptr %4, align 8, !tbaa !8
  store i32 %1, ptr %5, align 4, !tbaa !25
  br label %8

8:                                                ; preds = %2
  %9 = load ptr, ptr %4, align 8, !tbaa !8
  %10 = icmp ne ptr %9, null
  br i1 %10, label %15, label %11

11:                                               ; preds = %8
  br label %12

12:                                               ; preds = %11
  br label %13

13:                                               ; preds = %12
  br label %14

14:                                               ; preds = %13, %14
  br label %14

15:                                               ; preds = %8
  br label %16

16:                                               ; preds = %15
  call void @llvm.lifetime.start.p0(i64 8, ptr %6) #6
  %17 = load ptr, ptr %4, align 8, !tbaa !8
  store ptr %17, ptr %6, align 8, !tbaa !10
  %18 = load i32, ptr %5, align 4, !tbaa !25
  %19 = load ptr, ptr %6, align 8, !tbaa !10
  %20 = getelementptr inbounds nuw %struct._lv_table_t, ptr %19, i32 0, i32 1
  %21 = load i32, ptr %20, align 8, !tbaa !12
  %22 = icmp uge i32 %18, %21
  br i1 %22, label %23, label %27

23:                                               ; preds = %16
  br label %24

24:                                               ; preds = %23
  br label %25

25:                                               ; preds = %24
  br label %26

26:                                               ; preds = %25
  store i32 0, ptr %3, align 4
  store i32 1, ptr %7, align 4
  br label %35

27:                                               ; preds = %16
  %28 = load ptr, ptr %6, align 8, !tbaa !10
  %29 = getelementptr inbounds nuw %struct._lv_table_t, ptr %28, i32 0, i32 5
  %30 = load ptr, ptr %29, align 8, !tbaa !23
  %31 = load i32, ptr %5, align 4, !tbaa !25
  %32 = zext i32 %31 to i64
  %33 = getelementptr inbounds nuw i32, ptr %30, i64 %32
  %34 = load i32, ptr %33, align 4, !tbaa !25
  store i32 %34, ptr %3, align 4
  store i32 1, ptr %7, align 4
  br label %35

35:                                               ; preds = %27, %26
  call void @llvm.lifetime.end.p0(i64 8, ptr %6) #6
  %36 = load i32, ptr %3, align 4
  ret i32 %36
}