; Function Attrs: nofree norecurse nosync nounwind memory(read, inaccessiblemem: none) uwtable
define i32 @lv_table_get_column_width(ptr noundef readonly captures(address_is_null) %0, i32 noundef %1) local_unnamed_addr #4 {
  %.not = icmp eq ptr %0, null
  br i1 %.not, label %.preheader, label %3

.preheader:                                       ; preds = %2, %.preheader
  br label %.preheader

3:                                                ; preds = %2
  %4 = getelementptr inbounds nuw i8, ptr %0, i64 64
  %5 = load i32, ptr %4, align 8, !tbaa !3
  %.not8 = icmp ult i32 %1, %5
  br i1 %.not8, label %6, label %12

6:                                                ; preds = %3
  %7 = getelementptr inbounds nuw i8, ptr %0, i64 88
  %8 = load ptr, ptr %7, align 8, !tbaa !19
  %9 = zext i32 %1 to i64
  %10 = getelementptr inbounds nuw i32, ptr %8, i64 %9
  %11 = load i32, ptr %10, align 4, !tbaa !21
  br label %12

12:                                               ; preds = %3, %6
  %.0 = phi i32 [ %11, %6 ], [ 0, %3 ]
  ret i32 %.0
}